target datalayout = "e-m:e-p270:32:32-p271:32:32-p272:64:64-i64:64-i128:128-f80:128-n8:16:32:64-S128"
target triple = "x86_64-pc-linux-gnu"

; Function Attrs: inlinehint mustprogress nounwind uwtable
define linkonce_odr noundef nonnull align 4 dereferenceable(4) ptr @_ZSt3minIfERKT_S2_S2_(ptr noundef nonnull align 4 dereferenceable(4) %0, ptr noundef nonnull align 4 dereferenceable(4) %1) #6 comdat {
  %3 = alloca ptr, align 8
  %4 = alloca ptr, align 8
  %5 = alloca ptr, align 8
  store ptr %0, ptr %4, align 8, !tbaa !34
  store ptr %1, ptr %5, align 8, !tbaa !34
  %6 = load ptr, ptr %5, align 8, !tbaa !34
  %7 = load float, ptr %6, align 4, !tbaa !20
  %8 = load ptr, ptr %4, align 8, !tbaa !34
  %9 = load float, ptr %8, align 4, !tbaa !20
  %10 = fcmp olt float %7, %9
  br i1 %10, label %11, label %13

11:                                               ; preds = %2
  %12 = load ptr, ptr %5, align 8, !tbaa !34
  store ptr %12, ptr %3, align 8
  br label %15

13:                                               ; preds = %2
  %14 = load ptr, ptr %4, align 8, !tbaa !34
  store ptr %14, ptr %3, align 8
  br label %15

15:                                               ; preds = %13, %11
  %16 = load ptr, ptr %3, align 8
  ret ptr %16
}

; Function Attrs: inlinehint mustprogress nounwind uwtable
define linkonce_odr noundef float @_ZSt4fabsf(float noundef %0) #6 comdat {
  %2 = alloca float, align 4
  store float %0, ptr %2, align 4, !tbaa !20
  %3 = load float, ptr %2, align 4, !tbaa !20
  %4 = call float @llvm.fabs.f32(float %3)
  ret float %4
}

; Function Attrs: mustprogress uwtable
define hidden noundef float @_ZN5logos5Match12angleAbsDiffEff(ptr noundef nonnull align 8 dereferenceable(56) %0, float noundef %1, float noundef %2) #4 align 2 {
  %4 = alloca ptr, align 8
  %5 = alloca float, align 4
  %6 = alloca float, align 4
  %7 = alloca float, align 4
  %8 = alloca float, align 4
  %9 = alloca float, align 4
  store ptr %0, ptr %4, align 8, !tbaa !3
  store float %1, ptr %5, align 4, !tbaa !20
  store float %2, ptr %6, align 4, !tbaa !20
  call void @llvm.lifetime.start.p0(i64 4, ptr %7) #3
  %10 = load float, ptr %5, align 4, !tbaa !20
  %11 = load float, ptr %6, align 4, !tbaa !20
  %12 = fsub float %10, %11
  %13 = call noundef float @_ZSt4fabsf(float noundef %12)
  store float %13, ptr %7, align 4, !tbaa !20
  br label %14

14:                                               ; preds = %18, %3
  %15 = load float, ptr %7, align 4, !tbaa !20
  %16 = fpext float %15 to double
  %17 = fcmp ogt double %16, 0x401921FB54442D18
  br i1 %17, label %18, label %23

18:                                               ; preds = %14
  %19 = load float, ptr %7, align 4, !tbaa !20
  %20 = fpext float %19 to double
  %21 = fsub double %20, 0x401921FB54442D18
  %22 = fptrunc double %21 to float
  store float %22, ptr %7, align 4, !tbaa !20
  br label %14, !llvm.loop !30

23:                                               ; preds = %14
  call void @llvm.lifetime.start.p0(i64 4, ptr %8) #3
  %24 = load float, ptr %7, align 4, !tbaa !20
  %25 = call noundef float @_ZSt4fabsf(float noundef %24)
  store float %25, ptr %8, align 4, !tbaa !20
  call void @llvm.lifetime.start.p0(i64 4, ptr %9) #3
  %26 = load float, ptr %7, align 4, !tbaa !20
  %27 = call noundef float @_ZSt4fabsf(float noundef %26)
  %28 = fpext float %27 to double
  %29 = fsub double 0x401921FB54442D18, %28
  %30 = fptrunc double %29 to float
  %31 = call noundef float @_ZSt4fabsf(float noundef %30)
  store float %31, ptr %9, align 4, !tbaa !20
  %32 = call noundef nonnull align 4 dereferenceable(4) ptr @_ZSt3minIfERKT_S2_S2_(ptr noundef nonnull align 4 dereferenceable(4) %8, ptr noundef nonnull align 4 dereferenceable(4) %9)
  %33 = load float, ptr %32, align 4, !tbaa !20
  store float %33, ptr %7, align 4, !tbaa !20
  call void @llvm.lifetime.end.p0(i64 4, ptr %9) #3
  call void @llvm.lifetime.end.p0(i64 4, ptr %8) #3
  %34 = load float, ptr %7, align 4, !tbaa !20
  call void @llvm.lifetime.end.p0(i64 4, ptr %7) #3
  ret float %34
}