; Function Attrs: mustprogress nofree norecurse nosync nounwind willreturn memory(none) uwtable
define hidden noundef float @_ZN5logos5Match12angleAbsDiffEff(ptr noundef nonnull readnone align 8 captures(none) dereferenceable(56) %0, float noundef %1, float noundef %2) local_unnamed_addr #6 align 2 {
  %4 = fsub float %1, %2
  %5 = tail call noundef float @llvm.fabs.f32(float %4)
  %6 = fpext float %5 to double
  %7 = fcmp ogt double %6, 0x401921FB54442D18
  br i1 %7, label %.lr.ph, label %._crit_edge

.lr.ph:                                           ; preds = %3, %.lr.ph
  %8 = phi double [ %11, %.lr.ph ], [ %6, %3 ]
  %9 = fadd double %8, 0xC01921FB54442D18
  %10 = fptrunc double %9 to float
  %11 = fpext float %10 to double
  %12 = fcmp ogt double %11, 0x401921FB54442D18
  br i1 %12, label %.lr.ph, label %._crit_edge, !llvm.loop !31

._crit_edge:                                      ; preds = %.lr.ph, %3
  %.0.lcssa = phi float [ %5, %3 ], [ %10, %.lr.ph ]
  %13 = tail call noundef float @llvm.fabs.f32(float %.0.lcssa)
  %14 = fpext float %13 to double
  %15 = fsub double 0x401921FB54442D18, %14
  %16 = fptrunc double %15 to float
  %17 = tail call noundef float @llvm.fabs.f32(float %16)
  %18 = fcmp olt float %17, %13
  %.sroa.speculated = select i1 %18, float %17, float %13
  ret float %.sroa.speculated
}